target datalayout = "e-m:e-p270:32:32-p271:32:32-p272:64:64-i64:64-i128:128-f80:128-n8:16:32:64-S128"
target triple = "x86_64-pc-linux-gnu"

%"class.std::exception" = type { ptr }
%"struct.pybind11::detail::void_type" = type { i8 }
%"class.std::runtime_error" = type { %"class.std::exception", %"struct.std::__cow_string" }
%"struct.std::__cow_string" = type { %union.anon.196 }
%union.anon.196 = type { ptr }

@_ZTISt13runtime_error = external constant ptr
@.str.179 = private unnamed_addr constant [16 x i8] c"Inner Exception\00", align 1
@.str.180 = private unnamed_addr constant [16 x i8] c"Outer Exception\00", align 1

; Function Attrs: mustprogress uwtable
define internal void @"_ZZ25test_submodule_exceptionsRN8pybind117module_EENK4$_30clEv"(ptr noundef nonnull align 1 dereferenceable(1) %0) #1 align 2 personality ptr @__gxx_personality_v0 {
  %2 = alloca ptr, align 8
  %3 = alloca ptr, align 8
  %4 = alloca i32, align 4
  %5 = alloca ptr, align 8
  %6 = alloca %"class.std::runtime_error", align 8
  store ptr %0, ptr %2, align 8
  %7 = call ptr @__cxa_allocate_exception(i64 16) #6
  invoke void @_ZNSt13runtime_errorC1EPKc(ptr noundef nonnull align 8 dereferenceable(16) %7, ptr noundef @.str.179)
          to label %8 unwind label %9

8:                                                ; preds = %1
  invoke void @__cxa_throw(ptr %7, ptr @_ZTISt13runtime_error, ptr @_ZNSt13runtime_errorD1Ev) #23
          to label %45 unwind label %13

9:                                                ; preds = %1
  %10 = landingpad { ptr, i32 }
          cleanup
          catch ptr @_ZTISt13runtime_error
  %11 = extractvalue { ptr, i32 } %10, 0
  store ptr %11, ptr %3, align 8
  %12 = extractvalue { ptr, i32 } %10, 1
  store i32 %12, ptr %4, align 4
  call void @__cxa_free_exception(ptr %7) #6
  br label %17

13:                                               ; preds = %8
  %14 = landingpad { ptr, i32 }
          catch ptr @_ZTISt13runtime_error
  %15 = extractvalue { ptr, i32 } %14, 0
  store ptr %15, ptr %3, align 8
  %16 = extractvalue { ptr, i32 } %14, 1
  store i32 %16, ptr %4, align 4
  br label %17

17:                                               ; preds = %13, %9
  %18 = load i32, ptr %4, align 4
  %19 = call i32 @llvm.eh.typeid.for(ptr @_ZTISt13runtime_error) #6
  %20 = icmp eq i32 %18, %19
  br i1 %20, label %21, label %37

21:                                               ; preds = %17
  %22 = load ptr, ptr %3, align 8
  %23 = call ptr @__cxa_begin_catch(ptr %22) #6
  store ptr %23, ptr %5, align 8
  invoke void @_ZNSt13runtime_errorC1EPKc(ptr noundef nonnull align 8 dereferenceable(16) %6, ptr noundef @.str.180)
          to label %24 unwind label %26

24:                                               ; preds = %21
  invoke void @_ZSt17throw_with_nestedISt13runtime_errorEvOT_(ptr noundef nonnull align 8 dereferenceable(16) %6) #23
          to label %25 unwind label %30

25:                                               ; preds = %24
  unreachable

26:                                               ; preds = %21
  %27 = landingpad { ptr, i32 }
          cleanup
  %28 = extractvalue { ptr, i32 } %27, 0
  store ptr %28, ptr %3, align 8
  %29 = extractvalue { ptr, i32 } %27, 1
  store i32 %29, ptr %4, align 4
  br label %34

30:                                               ; preds = %24
  %31 = landingpad { ptr, i32 }
          cleanup
  %32 = extractvalue { ptr, i32 } %31, 0
  store ptr %32, ptr %3, align 8
  %33 = extractvalue { ptr, i32 } %31, 1
  store i32 %33, ptr %4, align 4
  call void @_ZNSt13runtime_errorD1Ev(ptr noundef nonnull align 8 dereferenceable(16) %6) #6
  br label %34

34:                                               ; preds = %30, %26
  invoke void @__cxa_end_catch()
          to label %35 unwind label %42

35:                                               ; preds = %34
  br label %37

36:                                               ; No predecessors!
  ret void

37:                                               ; preds = %35, %17
  %38 = load ptr, ptr %3, align 8
  %39 = load i32, ptr %4, align 4
  %40 = insertvalue { ptr, i32 } poison, ptr %38, 0
  %41 = insertvalue { ptr, i32 } %40, i32 %39, 1
  resume { ptr, i32 } %41

42:                                               ; preds = %34
  %43 = landingpad { ptr, i32 }
          catch ptr null
  %44 = extractvalue { ptr, i32 } %43, 0
  call void @__clang_call_terminate(ptr %44) #20
  unreachable

45:                                               ; preds = %8
  unreachable
}

; Function Attrs: mustprogress uwtable
define internal void @"_ZNO8pybind116detail15argument_loaderIJEE9call_implIvRZ25test_submodule_exceptionsRNS_7module_EE4$_30TpTnmJENS0_9void_typeEEET_OT0_St16integer_sequenceImJXspT1_EEEOT2_"(ptr noundef nonnull align 1 dereferenceable(1) %0, ptr noundef nonnull align 1 dereferenceable(1) %1, ptr noundef nonnull align 1 dereferenceable(1) %2) #1 align 2 {
  %4 = alloca ptr, align 8
  %5 = alloca ptr, align 8
  %6 = alloca ptr, align 8
  store ptr %0, ptr %4, align 8
  store ptr %1, ptr %5, align 8
  store ptr %2, ptr %6, align 8
  %7 = load ptr, ptr %5, align 8
  call void @"_ZZ25test_submodule_exceptionsRN8pybind117module_EENK4$_30clEv"(ptr noundef nonnull align 1 dereferenceable(1) %7)
  ret void
}

; Function Attrs: mustprogress uwtable
define internal void @"_ZNO8pybind116detail15argument_loaderIJEE4callIvNS0_9void_typeERZ25test_submodule_exceptionsRNS_7module_EE4$_30EENSt9enable_ifIXsr3std7is_voidIT_EE5valueES4_E4typeEOT1_"(ptr noundef nonnull align 1 dereferenceable(1) %0, ptr noundef nonnull align 1 dereferenceable(1) %1) #1 align 2 {
  %3 = alloca ptr, align 8
  %4 = alloca ptr, align 8
  %5 = alloca %"struct.pybind11::detail::void_type", align 1
  store ptr %0, ptr %3, align 8
  store ptr %1, ptr %4, align 8
  %6 = load ptr, ptr %3, align 8
  %7 = load ptr, ptr %4, align 8
  call void @"_ZNO8pybind116detail15argument_loaderIJEE9call_implIvRZ25test_submodule_exceptionsRNS_7module_EE4$_30TpTnmJENS0_9void_typeEEET_OT0_St16integer_sequenceImJXspT1_EEEOT2_"(ptr noundef nonnull align 1 dereferenceable(1) %6, ptr noundef nonnull align 1 dereferenceable(1) %7, ptr noundef nonnull align 1 dereferenceable(1) %5)
  ret void
}