; Function Attrs: mustprogress noreturn uwtable
define internal fastcc void @"_ZNO8pybind116detail15argument_loaderIJEE4callIvNS0_9void_typeERZ25test_submodule_exceptionsRNS_7module_EE4$_30EENSt9enable_ifIXsr3std7is_voidIT_EE5valueES4_E4typeEOT1_"() unnamed_addr #10 align 2 personality ptr @__gxx_personality_v0 {
  %1 = alloca %"class.std::runtime_error", align 8
  call void @llvm.lifetime.start.p0(i64 16, ptr nonnull %1)
  %2 = tail call ptr @__cxa_allocate_exception(i64 16) #25
  invoke void @_ZNSt13runtime_errorC1EPKc(ptr noundef nonnull align 8 dereferenceable(16) %2, ptr noundef nonnull @.str.179)
          to label %3 unwind label %4

3:                                                ; preds = %0
  invoke void @__cxa_throw(ptr nonnull %2, ptr nonnull @_ZTISt13runtime_error, ptr nonnull @_ZNSt13runtime_errorD1Ev) #29
          to label %24 unwind label %6

4:                                                ; preds = %0
  %5 = landingpad { ptr, i32 }
          cleanup
          catch ptr @_ZTISt13runtime_error
  tail call void @__cxa_free_exception(ptr %2) #25
  br label %8

6:                                                ; preds = %3
  %7 = landingpad { ptr, i32 }
          catch ptr @_ZTISt13runtime_error
  br label %8

8:                                                ; preds = %6, %4
  %.pn.i.i = phi { ptr, i32 } [ %7, %6 ], [ %5, %4 ]
  %.03.i.i = extractvalue { ptr, i32 } %.pn.i.i, 1
  %9 = tail call i32 @llvm.eh.typeid.for(ptr nonnull @_ZTISt13runtime_error) #25
  %10 = icmp eq i32 %.03.i.i, %9
  br i1 %10, label %11, label %20

11:                                               ; preds = %8
  %.0.i.i = extractvalue { ptr, i32 } %.pn.i.i, 0
  %12 = tail call ptr @__cxa_begin_catch(ptr %.0.i.i) #25
  invoke void @_ZNSt13runtime_errorC1EPKc(ptr noundef nonnull align 8 dereferenceable(16) %1, ptr noundef nonnull @.str.180)
          to label %13 unwind label %15

13:                                               ; preds = %11
  invoke void @_ZSt17throw_with_nestedISt13runtime_errorEvOT_(ptr noundef nonnull align 8 dereferenceable(16) %1) #29
          to label %14 unwind label %17

14:                                               ; preds = %13
  unreachable

15:                                               ; preds = %11
  %16 = landingpad { ptr, i32 }
          cleanup
  br label %19

17:                                               ; preds = %13
  %18 = landingpad { ptr, i32 }
          cleanup
  call void @_ZNSt13runtime_errorD1Ev(ptr noundef nonnull align 8 dereferenceable(16) %1) #25
  br label %19

19:                                               ; preds = %17, %15
  %.pn7.i.i = phi { ptr, i32 } [ %18, %17 ], [ %16, %15 ]
  invoke void @__cxa_end_catch()
          to label %20 unwind label %21

20:                                               ; preds = %19, %8
  %.merged.i.i = phi { ptr, i32 } [ %.pn7.i.i, %19 ], [ %.pn.i.i, %8 ]
  resume { ptr, i32 } %.merged.i.i

21:                                               ; preds = %19
  %22 = landingpad { ptr, i32 }
          catch ptr null
  %23 = extractvalue { ptr, i32 } %22, 0
  call void @__clang_call_terminate(ptr %23) #26
  unreachable

24:                                               ; preds = %3
  unreachable
}